; Function Attrs: mustprogress nounwind uwtable
define void @_ZN6casadi5QrsqpD2Ev(ptr noundef nonnull align 8 dereferenceable(2049) %0) unnamed_addr #4 align 2 personality ptr @__gxx_personality_v0 {
  store ptr getelementptr inbounds ({ [120 x ptr], [3 x ptr] }, ptr @_ZTVN6casadi5QrsqpE, i64 0, i32 0, i64 2), ptr %0, align 8
  %2 = getelementptr inbounds i8, ptr %0, i64 1520
  store ptr getelementptr inbounds ({ [120 x ptr], [3 x ptr] }, ptr @_ZTVN6casadi5QrsqpE, i64 0, i32 1, i64 2), ptr %2, align 8
  invoke void @_ZN6casadi13ProtoFunction9clear_memEv(ptr noundef nonnull align 8 dereferenceable(168) %0)
          to label %3 unwind label %7

3:                                                ; preds = %1
  %4 = getelementptr inbounds i8, ptr %0, i64 2040
  tail call void @_ZN6casadi12SharedObjectD2Ev(ptr noundef nonnull align 8 dereferenceable(8) %4) #19
  %5 = getelementptr inbounds i8, ptr %0, i64 2032
  tail call void @_ZN6casadi12SharedObjectD2Ev(ptr noundef nonnull align 8 dereferenceable(8) %5) #19
  %6 = getelementptr inbounds i8, ptr %0, i64 1928
  tail call void @_ZN6casadi8FunctionD1Ev(ptr noundef nonnull align 8 dereferenceable(8) %6) #19
  tail call void @_ZN6casadi6NlpsolD2Ev(ptr noundef nonnull align 8 dereferenceable(1928) %0) #19
  ret void

7:                                                ; preds = %1
  %8 = landingpad { ptr, i32 }
          catch ptr null
  %9 = extractvalue { ptr, i32 } %8, 0
  tail call void @__clang_call_terminate(ptr %9) #22
  unreachable
}